(dp1
S'sg_version_data'
p2
(dp3
S'code'
p4
S'v0.20.16'
p5
sS'description'
p6
S"Fix the logic in the resolver so that Python 2 users do not depend on  having 'SGTK_CONFIG_LOCK_VERSION' environment variable to stop auto update to the latest config."
p7
sS'tags'
p8
(lp9
sS'sg_payload'
p10
(dp11
S'name'
p12
S'sgtk_core_v0.20.16.zip'
p13
sS'url'
p14
S'https://s3-proxy.shotgunstudio.com/d18c13bf0e59a9a82f18be518a1b6b508bcbd774/ccd2adf8b830df280cfc14435cfd7be9df0c2c86/sgtk_core_v0.20.16.zip?response-content-disposition=filename%3D%22sgtk_core_v0.20.16.zip%22&x-amz-meta-user-id=42&x-amz-meta-user-type=ApiUser&X-Amz-Algorithm=AWS4-HMAC-SHA256&X-Amz-Credential=ASIAYJG6Z4JITHHTL5PV%2F20230516%2Fus-west-2%2Fs3%2Faws4_request&X-Amz-Date=20230516T051953Z&X-Amz-SignedHeaders=host&X-Amz-Expires=900&X-Amz-Security-Token=IQoJb3JpZ2luX2VjEP3%2F%2F%2F%2F%2F%2F%2F%2F%2F%2FwEaCXVzLWVhc3QtMSJHMEUCIQCZRWdTyZu2YD5mPtp3K6mXmGTZqcuqCP6UY5ian5uMuAIgQF0XQJhL6iMLz%2BRHgSnQc5nR9%2Fc4E%2BUk4py5PRp8J1cqmAIIJhAAGgw1Njk1NTA0MzA4MDEiDHWAeJG8W%2FeIsyE0lir1ATCnNtHOZ5FYz8SeyE7vBZA2o%2FJqBGyqM9cdTTCJa66oinDYaGxI%2BRrbfkHwEmK43HdG3M7ML%2FdGL9vHWUDiQOzDmRg9XM0Kk3J2G1Jytzcv2nRl4WW8rxTwa18WfSA64kGZIOHTOVgWnJ1FpoBTcwhAo7kqjbA1mZkTWbS2b7PXDcXQDrPIJ4Mtr61y%2FXpQGi5mf913xjclvHBOGaLxIxxYrF6CflI5Y9iT8Z%2FRQVHl7acWsHLz1up0yIhI7A76V54mODAXuJ7XNNFpDhVV3kIT6Qa3EDfghlcaWUa0TSLfB1mfmWzXNP1rBtp%2BkmbBVTHN8yHUMImPjKMGOp0BTxUbSkz8rv2IvOylqVW0qK6iFsGnsVbCrb9PDZJl1WtiJUVBO6p%2FOVFMA7sM3vJzdr%2F5FCvTXqzMEE5LZaJ%2FL7xI5rNy1lofUQw42r3fwwClhSKjJELfHHwXWpGcdzqors0r%2BHtOh03SgZMpm%2FLIaBrRfPVEsJ8zpruYS71vVINxmWT1fSI6iZ5AMakGA85DQh5oC1pJGvt5bFwArA%3D%3D&X-Amz-Signature=51723f3937acb7a2d01077e7163a52026acaf7d23dddb510d92c8d454b010a25'
p15
sS'content_type'
p16
S'application/zip'
p17
sS'type'
p18
S'Attachment'
p19
sS'id'
p20
I29549
sS'link_type'
p21
S'upload'
p22
ssS'sg_status_list'
p23
S'prod'
p24
sS'sg_detailed_release_notes'
p25
(dp26
S'name'
p27
S'v0.20.16'
p28
sS'url'
p29
S'https://community.shotgridsoftware.com/t/a-new-version-of-tk-core-has-been-released/13647/12'
p30
sS'content_type'
p31
NsS'type'
p32
S'Attachment'
p33
sS'id'
p34
I29572
sS'link_type'
p35
S'web'
p36
ssS'sg_documentation'
p37
(dp38
S'name'
p39
S'Documentation'
p40
sS'url'
p41
S'https://developer.shotgridsoftware.com/d587be80/?title=Integrations+User+Guide'
p42
sS'content_type'
p43
NsS'type'
p44
S'Attachment'
p45
sS'id'
p46
I29548
sS'link_type'
p47
S'web'
p48
ssS'type'
p49
S'CustomNonProjectEntity01'
p50
sS'id'
p51
I1760
ssS'sg_bundle_data'
p52
Ns.