(dp1
S'sg_version_data'
p2
(dp3
S'code'
p4
S'v1.8.5'
p5
sS'description'
p6
S'Fix an issue where The `Update task` actions were clickable even if the task action was already done.'
p7
sS'tags'
p8
(lp9
sS'sg_payload'
p10
(dp11
S'name'
p12
S'tk-multi-shotgunpanel_v1.8.5.zip'
p13
sS'url'
p14
S'https://s3-proxy.shotgunstudio.com/d18c13bf0e59a9a82f18be518a1b6b508bcbd774/6f222b1006bc57218eb2d22e96cc31e42f070362/tk-multi-shotgunpanel_v1.8.5.zip?response-content-disposition=filename%3D%22tk-multi-shotgunpanel_v1.8.5.zip%22&x-amz-meta-user-id=42&x-amz-meta-user-type=ApiUser&X-Amz-Algorithm=AWS4-HMAC-SHA256&X-Amz-Credential=ASIAYJG6Z4JI2JSFIWH5%2F20230516%2Fus-west-2%2Fs3%2Faws4_request&X-Amz-Date=20230516T100420Z&X-Amz-SignedHeaders=host&X-Amz-Expires=900&X-Amz-Security-Token=IQoJb3JpZ2luX2VjEAIaCXVzLWVhc3QtMSJHMEUCIQC2MW5K5ShGgolpWYka1nfYwGKAys%2Fj6L1%2Fg1iULEGBfgIgAJu%2BzRt1UX%2B7ZBAvmPkbao3gdmmxBM5%2FNZJHqTdjrwUqmAIIKxAAGgw1Njk1NTA0MzA4MDEiDC5Z6VgeFx%2Bj7ochTCr1AWXe7IdL2lnx8peepD8YR%2BWCL3a%2FMmXD9bUjNqFY5x9XS%2F24UNG9fhErghQ%2FZrOe8GD2pnCofyi2e1d%2BKew%2Furi2XF64bp3L2N383cHq%2FJLLjfoKVp34SImwF%2B6po5AJpjqyfclnzj18qveHM1XyOuiz6u5oCvAK0sgqzSYrs4U2wCGw4NoBeVU0hEuUgw16JB4oJWsyr2H3BQBSyStxRmOhyT3fFPbB1syvyIXt8nir4uBYjVi195rAXkOd822sDCf4dP0yNUv%2FhfpKIdrSvHJMYTKW6Enp6T4X6zKvAPkr2k0A5B6H5eVIah8RpT2ixwWn%2FcC5MOOpjaMGOp0BmV7njlHlg8PInavjIIE0bLkBZC%2Bj9Of9AtzWoTFSTO6jiNjLAAQk4wy%2FbAsR43hImOsym8C%2FnkGslnFWpCVTJNlDddsO2ROOetqqQ1m1edxHDbKl4ywAx%2BWNG541N12v7ynwv6BXeAoISStGDbCspHJ8GX05QrDjdTOqTsEBWNzaohcM7f25Ewabq9RWV3eltRXHgNRTxb3ECK7W5g%3D%3D&X-Amz-Signature=777f1a00f7aeaed40ad99eb9c1a9b67180449600ae5833b93d6fc17726853401'
p15
sS'content_type'
p16
S'application/zip'
p17
sS'type'
p18
S'Attachment'
p19
sS'id'
p20
I29515
sS'link_type'
p21
S'upload'
p22
ssS'sg_status_list'
p23
S'prod'
p24
sS'sg_detailed_release_notes'
p25
(dp26
S'name'
p27
S'v1.8.5'
p28
sS'url'
p29
S'https://community.shotgridsoftware.com/t/a-new-version-of-tk-multi-shotgunpanel-has-been-released/14147/7'
p30
sS'content_type'
p31
NsS'type'
p32
S'Attachment'
p33
sS'id'
p34
I29516
sS'link_type'
p35
S'web'
p36
ssS'sg_documentation'
p37
(dp38
S'name'
p39
S'Documentation'
p40
sS'url'
p41
S'https://developer.shotgridsoftware.com/219033098'
p42
sS'content_type'
p43
NsS'type'
p44
S'Attachment'
p45
sS'id'
p46
I29514
sS'link_type'
p47
S'web'
p48
ssS'type'
p49
S'CustomNonProjectEntity05'
p50
sS'id'
p51
I5203
ssS'sg_bundle_data'
p52
(dp53
S'sg_status_list'
p54
S'depl'
p55
sS'type'
p56
S'CustomNonProjectEntity02'
p57
sS'id'
p58
I150
sS'sg_system_name'
p59
S'tk-multi-shotgunpanel'
p60
sS'sg_deprecation_message'
p61
Nss.