(dp1
S'sg_version_data'
p2
(dp3
S'code'
p4
S'v1.6.0'
p5
sS'description'
p6
S'Updates some third-party libraries, dropping support for python 2.7'
p7
sS'tags'
p8
(lp9
sS'sg_payload'
p10
(dp11
S'name'
p12
S'tk-framework-desktopserver_v1.6.0.zip'
p13
sS'url'
p14
S'https://s3-proxy.shotgunstudio.com/d18c13bf0e59a9a82f18be518a1b6b508bcbd774/905c5df85f54be75ad55b453771f453fb10f1c08/tk-framework-desktopserver_v1.6.0.zip?response-content-disposition=filename%3D%22tk-framework-desktopserver_v1.6.0.zip%22&x-amz-meta-user-id=42&x-amz-meta-user-type=ApiUser&X-Amz-Algorithm=AWS4-HMAC-SHA256&X-Amz-Credential=ASIAYJG6Z4JIWINIJQVC%2F20230516%2Fus-west-2%2Fs3%2Faws4_request&X-Amz-Date=20230516T100407Z&X-Amz-SignedHeaders=host&X-Amz-Expires=900&X-Amz-Security-Token=IQoJb3JpZ2luX2VjEAIaCXVzLWVhc3QtMSJIMEYCIQD%2ByqNKrZx6P2l2DEnjVN3KjEPv%2BT6kM4%2BjSrj6sbLS1wIhAObXSd5ydmwPxK%2F1rnqqjFjCkLKEtyuJ9HwPNC%2BnilmWKpgCCCsQABoMNTY5NTUwNDMwODAxIgwRfPDP4Nhf1cq4J%2FMq9QFiGRewmXvQ%2FsB7v1BKhqOjhYCXnbZ2R5E4NvvRBGIqCg6nMpAfGM3hhjBxvfrtocCS9e7tgR7lGzgqNQU2Ey5zAEZ%2FWKcWP01auHaKcSaz3HB3Vsxz0EK2S%2BxjIN5axHIiM7mlO1D%2FLQ5iEJLsrlkNAjF7%2BKX%2FHK2tXqtUhUrMpIZiUrKauWQdQ8uKKUIaDcK2G%2BdDOkYAo02Rz7S7HskWbjmcc7iHhN%2FkFQ2kHxMEoXz2X1AV%2BW%2FR%2B2BXyMZuul02j0JP5VuG8G8AHC7HNf%2B5PuFkH9I7iMtactulXgyNu5G2UG8LH7FQTpLjEfNxiaIbPvOCvTDtoI2jBjqcAXdHlciNn7yVs%2F7MNTUWk%2FicRfPs5YBARmNZtxq%2Ftsfxw9YorAwFUbo2OBpRHfFsWQk3VzShJjcXkox6dleX7jAzaNaP4wX6UVQwfDsCI2hfEgnCkwfjr1SEEFqzCg9TPjyM3Xx8UGBXEvaQx1bPpJoFqTldHaWdovbvj6qZDZXDlxXHXpQmjfTSnNqjpRrCxI7mF0lnEzwZjD6vZQ%3D%3D&X-Amz-Signature=1939f3e1dee49d1ceae849bf4b40566a83fce2b2cb85f54c0fdef11aa69716df'
p15
sS'content_type'
p16
S'application/zip'
p17
sS'type'
p18
S'Attachment'
p19
sS'id'
p20
I29542
sS'link_type'
p21
S'upload'
p22
ssS'sg_status_list'
p23
S'prod'
p24
sS'sg_detailed_release_notes'
p25
(dp26
S'name'
p27
S'v1.6.0'
p28
sS'url'
p29
S'https://community.shotgridsoftware.com/t/a-new-version-of-tk-framework-desktopserver-has-been-released/13509/6'
p30
sS'content_type'
p31
NsS'type'
p32
S'Attachment'
p33
sS'id'
p34
I29571
sS'link_type'
p35
S'web'
p36
ssS'sg_documentation'
p37
NsS'type'
p38
S'CustomNonProjectEntity09'
p39
sS'id'
p40
I2658
ssS'sg_bundle_data'
p41
(dp42
S'sg_status_list'
p43
S'depl'
p44
sS'type'
p45
S'CustomNonProjectEntity13'
p46
sS'id'
p47
I15
sS'sg_system_name'
p48
S'tk-framework-desktopserver'
p49
sS'sg_deprecation_message'
p50
Nss.