(dp1
S'sg_version_data'
p2
(dp3
S'code'
p4
S'v1.22.1'
p5
sS'description'
p6
S'Improved error messaging.'
p7
sS'tags'
p8
(lp9
sS'sg_payload'
p10
(dp11
S'name'
p12
S'tk-multi-loader2_v1.22.1.zip'
p13
sS'url'
p14
S'https://s3-proxy.shotgunstudio.com/d18c13bf0e59a9a82f18be518a1b6b508bcbd774/851f88bda006a38e5d8a04582ceaa4897212c06c/tk-multi-loader2_v1.22.1.zip?response-content-disposition=filename%3D%22tk-multi-loader2_v1.22.1.zip%22&x-amz-meta-user-id=42&x-amz-meta-user-type=ApiUser&X-Amz-Algorithm=AWS4-HMAC-SHA256&X-Amz-Credential=ASIAYJG6Z4JIYOHODJI5%2F20230516%2Fus-west-2%2Fs3%2Faws4_request&X-Amz-Date=20230516T100557Z&X-Amz-SignedHeaders=host&X-Amz-Expires=900&X-Amz-Security-Token=IQoJb3JpZ2luX2VjEAIaCXVzLWVhc3QtMSJIMEYCIQD5wwLg9%2FIIk9r0mO9jk1eumBWMsLp0nAbELd25jDWUPwIhAL7Z0ZdDtl0khR2numzSha%2F3sxKbzd8ZdVKoK2vHoW0fKpgCCCsQABoMNTY5NTUwNDMwODAxIgy3szD2EAbpCUGryXYq9QFFMN%2B%2Fvbt9pFEbyKaNPAgJfjlwRU1k%2FZZjGNwxOCIXp0fEVyIzY7T4oiyLegXatoDTIzRA03ykJOFVZSy%2Fan5ARAeDxwza0hmBPvWjZi1A2aPeyGlS3OMtK8wJJvae%2BHPMcrIvaPIZrH6JaG3Uaa3CVKQjqHscMB55kKjbYaWuK6klymZMGXRJrHEuEfhcglM7EWuD2xY1wUH2wY9nF9f3u750IvinafUsomaJ2YOeepk%2BWbhK3x7PJpFZJPVGxxxC3Vr3CYUqaW8v%2B%2Byn4yB5y42UyMl2bRAaHN3o96PGo1YHiJBBZeu6xEUshn0IU97mnZ%2BiVjD8m42jBjqcAZmKV0wC7gnbzte4v9XmcnGG%2Fm2Pa0%2BrwGaqcmyqhnOPtt%2BzfokuzBR%2BsKRL7Pb8EP37KaF7XpR7WawFZfu1GWOLDFiC22BqE9EDcsc02UWoSqJpjC58WJX4TeYgjtEG9yCmat1Sh9VYxesy%2BaT51zWsxOWxzUs3TF4Akpn3Vc2%2BVZKOHxC6TxEVGRht9CKbdU5SkVy6ZKZr%2FnQv3g%3D%3D&X-Amz-Signature=024d7afa22b9de8e1e33ef0d64266e8678204f3ff05e0954d505f8e7e469b63d'
p15
sS'content_type'
p16
S'application/zip'
p17
sS'type'
p18
S'Attachment'
p19
sS'id'
p20
I29110
sS'link_type'
p21
S'upload'
p22
ssS'sg_status_list'
p23
S'prod'
p24
sS'sg_detailed_release_notes'
p25
(dp26
S'name'
p27
S'v1.22.1'
p28
sS'url'
p29
S'https://community.shotgridsoftware.com/t/a-new-version-of-tk-multi-loader2-has-been-released/14138/6'
p30
sS'content_type'
p31
NsS'type'
p32
S'Attachment'
p33
sS'id'
p34
I29142
sS'link_type'
p35
S'web'
p36
ssS'sg_documentation'
p37
(dp38
S'name'
p39
S'Documentation'
p40
sS'url'
p41
S'https://developer.shotgridsoftware.com/219033078'
p42
sS'content_type'
p43
NsS'type'
p44
S'Attachment'
p45
sS'id'
p46
I29109
sS'link_type'
p47
S'web'
p48
ssS'type'
p49
S'CustomNonProjectEntity05'
p50
sS'id'
p51
I5103
ssS'sg_bundle_data'
p52
(dp53
S'sg_status_list'
p54
S'depl'
p55
sS'type'
p56
S'CustomNonProjectEntity02'
p57
sS'id'
p58
I129
sS'sg_system_name'
p59
S'tk-multi-loader2'
p60
sS'sg_deprecation_message'
p61
Nss.