(dp1
S'sg_version_data'
p2
(dp3
S'code'
p4
S'v1.17.7'
p5
sS'description'
p6
S'Fix error closing QT windows'
p7
sS'tags'
p8
(lp9
sS'sg_payload'
p10
(dp11
S'name'
p12
S'tk-flame_v1.17.7.zip'
p13
sS'url'
p14
S'https://s3-proxy.shotgunstudio.com/d18c13bf0e59a9a82f18be518a1b6b508bcbd774/7b16b3f420c588404df50ec86b00db02a4cc2b5a/tk-flame_v1.17.7.zip?response-content-disposition=filename%3D%22tk-flame_v1.17.7.zip%22&x-amz-meta-user-id=42&x-amz-meta-user-type=ApiUser&X-Amz-Algorithm=AWS4-HMAC-SHA256&X-Amz-Credential=ASIAYJG6Z4JI2JSFIWH5%2F20230516%2Fus-west-2%2Fs3%2Faws4_request&X-Amz-Date=20230516T100626Z&X-Amz-SignedHeaders=host&X-Amz-Expires=900&X-Amz-Security-Token=IQoJb3JpZ2luX2VjEAIaCXVzLWVhc3QtMSJHMEUCIQC2MW5K5ShGgolpWYka1nfYwGKAys%2Fj6L1%2Fg1iULEGBfgIgAJu%2BzRt1UX%2B7ZBAvmPkbao3gdmmxBM5%2FNZJHqTdjrwUqmAIIKxAAGgw1Njk1NTA0MzA4MDEiDC5Z6VgeFx%2Bj7ochTCr1AWXe7IdL2lnx8peepD8YR%2BWCL3a%2FMmXD9bUjNqFY5x9XS%2F24UNG9fhErghQ%2FZrOe8GD2pnCofyi2e1d%2BKew%2Furi2XF64bp3L2N383cHq%2FJLLjfoKVp34SImwF%2B6po5AJpjqyfclnzj18qveHM1XyOuiz6u5oCvAK0sgqzSYrs4U2wCGw4NoBeVU0hEuUgw16JB4oJWsyr2H3BQBSyStxRmOhyT3fFPbB1syvyIXt8nir4uBYjVi195rAXkOd822sDCf4dP0yNUv%2FhfpKIdrSvHJMYTKW6Enp6T4X6zKvAPkr2k0A5B6H5eVIah8RpT2ixwWn%2FcC5MOOpjaMGOp0BmV7njlHlg8PInavjIIE0bLkBZC%2Bj9Of9AtzWoTFSTO6jiNjLAAQk4wy%2FbAsR43hImOsym8C%2FnkGslnFWpCVTJNlDddsO2ROOetqqQ1m1edxHDbKl4ywAx%2BWNG541N12v7ynwv6BXeAoISStGDbCspHJ8GX05QrDjdTOqTsEBWNzaohcM7f25Ewabq9RWV3eltRXHgNRTxb3ECK7W5g%3D%3D&X-Amz-Signature=53def3e170aae34fbb7506a28209cfbed6387434539785eaef981ab4c2718d6b'
p15
sS'content_type'
p16
S'application/zip'
p17
sS'type'
p18
S'Attachment'
p19
sS'id'
p20
I28780
sS'link_type'
p21
S'upload'
p22
ssS'sg_status_list'
p23
S'prod'
p24
sS'sg_detailed_release_notes'
p25
NsS'sg_documentation'
p26
(dp27
S'name'
p28
S'Documentation'
p29
sS'url'
p30
S'https://developer.shotgridsoftware.com/219041158'
p31
sS'content_type'
p32
NsS'type'
p33
S'Attachment'
p34
sS'id'
p35
I28779
sS'link_type'
p36
S'web'
p37
ssS'type'
p38
S'CustomNonProjectEntity04'
p39
sS'id'
p40
I3347
ssS'sg_bundle_data'
p41
(dp42
S'sg_status_list'
p43
S'depl'
p44
sS'type'
p45
S'CustomNonProjectEntity03'
p46
sS'id'
p47
I51
sS'sg_system_name'
p48
S'tk-flame'
p49
sS'sg_deprecation_message'
p50
Nss.