(dp1
S'sg_version_data'
p2
(dp3
S'code'
p4
S'v0.2.5'
p5
sS'description'
p6
S'General improvements'
p7
sS'tags'
p8
(lp9
sS'sg_payload'
p10
(dp11
S'name'
p12
S'tk-multi-breakdown2_v0.2.5.zip'
p13
sS'url'
p14
S'https://s3-proxy.shotgunstudio.com/d18c13bf0e59a9a82f18be518a1b6b508bcbd774/dd8f033444880a58e0c209ac685161fb5c8b73c9/tk-multi-breakdown2_v0.2.5.zip?response-content-disposition=filename%3D%22tk-multi-breakdown2_v0.2.5.zip%22&x-amz-meta-user-id=42&x-amz-meta-user-type=ApiUser&X-Amz-Algorithm=AWS4-HMAC-SHA256&X-Amz-Credential=ASIAYJG6Z4JI2JSFIWH5%2F20230516%2Fus-west-2%2Fs3%2Faws4_request&X-Amz-Date=20230516T100709Z&X-Amz-SignedHeaders=host&X-Amz-Expires=900&X-Amz-Security-Token=IQoJb3JpZ2luX2VjEAIaCXVzLWVhc3QtMSJHMEUCIQC2MW5K5ShGgolpWYka1nfYwGKAys%2Fj6L1%2Fg1iULEGBfgIgAJu%2BzRt1UX%2B7ZBAvmPkbao3gdmmxBM5%2FNZJHqTdjrwUqmAIIKxAAGgw1Njk1NTA0MzA4MDEiDC5Z6VgeFx%2Bj7ochTCr1AWXe7IdL2lnx8peepD8YR%2BWCL3a%2FMmXD9bUjNqFY5x9XS%2F24UNG9fhErghQ%2FZrOe8GD2pnCofyi2e1d%2BKew%2Furi2XF64bp3L2N383cHq%2FJLLjfoKVp34SImwF%2B6po5AJpjqyfclnzj18qveHM1XyOuiz6u5oCvAK0sgqzSYrs4U2wCGw4NoBeVU0hEuUgw16JB4oJWsyr2H3BQBSyStxRmOhyT3fFPbB1syvyIXt8nir4uBYjVi195rAXkOd822sDCf4dP0yNUv%2FhfpKIdrSvHJMYTKW6Enp6T4X6zKvAPkr2k0A5B6H5eVIah8RpT2ixwWn%2FcC5MOOpjaMGOp0BmV7njlHlg8PInavjIIE0bLkBZC%2Bj9Of9AtzWoTFSTO6jiNjLAAQk4wy%2FbAsR43hImOsym8C%2FnkGslnFWpCVTJNlDddsO2ROOetqqQ1m1edxHDbKl4ywAx%2BWNG541N12v7ynwv6BXeAoISStGDbCspHJ8GX05QrDjdTOqTsEBWNzaohcM7f25Ewabq9RWV3eltRXHgNRTxb3ECK7W5g%3D%3D&X-Amz-Signature=40023196c84d1d5364e0b59cb085c1d022543bdbb50a68ddfff6359643b4d1ff'
p15
sS'content_type'
p16
S'application/zip'
p17
sS'type'
p18
S'Attachment'
p19
sS'id'
p20
I28845
sS'link_type'
p21
S'upload'
p22
ssS'sg_status_list'
p23
S'prod'
p24
sS'sg_detailed_release_notes'
p25
(dp26
S'name'
p27
S'v0.2.5'
p28
sS'url'
p29
S'https://community.shotgridsoftware.com/t/a-new-version-of-tk-multi-breakdown2-has-been-released/15299/4'
p30
sS'content_type'
p31
NsS'type'
p32
S'Attachment'
p33
sS'id'
p34
I28943
sS'link_type'
p35
S'web'
p36
ssS'sg_documentation'
p37
NsS'type'
p38
S'CustomNonProjectEntity05'
p39
sS'id'
p40
I4905
ssS'sg_bundle_data'
p41
(dp42
S'sg_status_list'
p43
S'depl'
p44
sS'type'
p45
S'CustomNonProjectEntity02'
p46
sS'id'
p47
I302
sS'sg_system_name'
p48
S'tk-multi-breakdown2'
p49
sS'sg_deprecation_message'
p50
Nss.