(dp1
S'sg_version_data'
p2
(dp3
S'code'
p4
S'v1.5.1'
p5
sS'description'
p6
S'Replacing shotgunsoftware urls with Autodesk Knowledge Network and ShotGrid Developer Documentation pages.'
p7
sS'tags'
p8
(lp9
sS'sg_payload'
p10
(dp11
S'name'
p12
S'tk-desktop2_v1.5.1.zip'
p13
sS'url'
p14
S'https://s3-proxy.shotgunstudio.com/d18c13bf0e59a9a82f18be518a1b6b508bcbd774/326bbfa75fc4e4798081309ba5bbc074e097ef51/tk-desktop2_v1.5.1.zip?response-content-disposition=filename%3D%22tk-desktop2_v1.5.1.zip%22&x-amz-meta-user-id=42&x-amz-meta-user-type=ApiUser&X-Amz-Algorithm=AWS4-HMAC-SHA256&X-Amz-Credential=ASIAYJG6Z4JIY5QEOOSA%2F20230516%2Fus-west-2%2Fs3%2Faws4_request&X-Amz-Date=20230516T100143Z&X-Amz-SignedHeaders=host&X-Amz-Expires=900&X-Amz-Security-Token=IQoJb3JpZ2luX2VjEAIaCXVzLWVhc3QtMSJGMEQCICuj%2F5MFAqZgdiD4y7SmQy6Vl3ovKDqRuwK2zfq9HXGtAiAOVIp3Y%2BV%2BmpHOd3fjqUMuEpyyMdXmnvmaI2E9zz5huSqYAggrEAAaDDU2OTU1MDQzMDgwMSIMBVC89Vyh3PRtFo8UKvUBPE739aqKu8HiHFlBn0sEukp8636fVhoOdRTIcKrjJEXKAJ7Kumgi0yI%2FnbH6ak2Sd%2FdJsOG121eK1lvZxDvxBKbcwo%2F35J%2B4WSuzotmapC6Bm9d47Pu%2BuBjGhkWlcsHoyuH%2B2gP2cqbjhN9cqJQRVzb9J9HimcUFPbnvhMxET8c8KavSpUjDUVSkl7SaydbjjD3MNh%2FfbSPOD88Me4%2BWScVVuDyH7RBTwHTkq6CzCcJ8n97sDdFn8f12XlZ3BWNQ6b8Rij0lM3NrzBSb%2Fg0jfTRvtQTD4wjpVy4eH8BfyXNbMw8tjQRmYO9oEpShtoKAEeApQ2UwhKSNowY6ngHipd3seZwemFLYi0jHpiAQNqBKvMNI8iHFgBkrgpKLuE42u0SttyS8t53Id%2FxNL67DyDX2RbQ4SmpA98cVb75j%2B0jdQXvrXfOj9DnaYK9Km9ti6mk2dbdrrVdm9gc1dWXCPn5EdjhSxrJgnV13uT0ge0yITzO27UT5FKbIyhUJpJiQT3hEKFbX7ZclBo87pJon8bRpcsCpX9BD%2FN%2FN5w%3D%3D&X-Amz-Signature=724ba360f014dc49837429dff11f63b63adf36bf08ce64368f2b1d1d2b2146e5'
p15
sS'content_type'
p16
S'application/zip'
p17
sS'type'
p18
S'Attachment'
p19
sS'id'
p20
I26877
sS'link_type'
p21
S'upload'
p22
ssS'sg_status_list'
p23
S'prod'
p24
sS'sg_detailed_release_notes'
p25
(dp26
S'name'
p27
S'v1.5.1'
p28
sS'url'
p29
S'https://community.shotgridsoftware.com/t/a-new-version-of-tk-desktop2-has-been-released/14118/3'
p30
sS'content_type'
p31
NsS'type'
p32
S'Attachment'
p33
sS'id'
p34
I27013
sS'link_type'
p35
S'web'
p36
ssS'sg_documentation'
p37
(dp38
S'name'
p39
S'Documentation'
p40
sS'url'
p41
S'https://developer.shotgridsoftware.com/360013191574'
p42
sS'content_type'
p43
NsS'type'
p44
S'Attachment'
p45
sS'id'
p46
I26876
sS'link_type'
p47
S'web'
p48
ssS'type'
p49
S'CustomNonProjectEntity04'
p50
sS'id'
p51
I2823
ssS'sg_bundle_data'
p52
(dp53
S'sg_status_list'
p54
S'hidden'
p55
sS'type'
p56
S'CustomNonProjectEntity03'
p57
sS'id'
p58
I55
sS'sg_system_name'
p59
S'tk-desktop2'
p60
sS'sg_deprecation_message'
p61
Nss.