(dp1
S'sg_version_data'
p2
(dp3
S'code'
p4
S'v1.9.4'
p5
sS'description'
p6
S'Fixed window parenting issue that displays Toolkit UI behind Photoshop.'
p7
sS'tags'
p8
(lp9
sS'sg_payload'
p10
(dp11
S'name'
p12
S'tk-photoshopcc_v1.9.4.zip'
p13
sS'url'
p14
S'https://s3-proxy.shotgunstudio.com/d18c13bf0e59a9a82f18be518a1b6b508bcbd774/d2012cb59f6f9b30c9bf5bbed7138987542d89c3/tk-photoshopcc_v1.9.4.zip?response-content-disposition=filename%3D%22tk-photoshopcc_v1.9.4.zip%22&x-amz-meta-user-id=42&x-amz-meta-user-type=ApiUser&X-Amz-Algorithm=AWS4-HMAC-SHA256&X-Amz-Credential=ASIAYJG6Z4JI56E4BLHJ%2F20230516%2Fus-west-2%2Fs3%2Faws4_request&X-Amz-Date=20230516T100515Z&X-Amz-SignedHeaders=host&X-Amz-Expires=900&X-Amz-Security-Token=IQoJb3JpZ2luX2VjEAMaCXVzLWVhc3QtMSJGMEQCIB3Fa62s8tGyl2%2B3LCQlIQ1x2sMWD%2FfRCUu%2FbzzWvlPuAiBsRn8cBUhyFVOYg1OFg0%2BX3WFYsYuQccQaEIfKkTEBhyqYAggrEAAaDDU2OTU1MDQzMDgwMSIM7WnofoPUahLGVcLyKvUB%2F3cSPi6yv7T4aB3RseZLpWRa10maL%2FtAjdSPoI6b8W%2FvATZQy9w7BqF%2Fo%2FjVYziVFfq370rkUFXDhslXsqE22afqZfRvXcPlBqhdcjhlahq09qTm2pLyU2V5rKJPu0kQEQpQpb5IZV76odq%2FP9rKhHAg9E5PfvoR5auEhI7qRB3QMCwEhM6lguVhf6IyNLDcKyl7Qn2%2Fi39SwCi4Ozi4oFlP5RT2u%2FL00R3f%2FQaDYP7yARWsL4v%2BlsCqm41Hcko21EW0C8nhM296laun1%2BhjfIegjo%2FltDYvGOJJhDUQqAQDDvKEdATPe4sB%2B6Yp1mBw1OkzuL4w26qNowY6ngH7K5EmCJ0taWXWeSoG2%2Bm9lEts98pmpSxHgzLzGTtXiUJL2R7xDLODiA8rL5GOFShnlLsmkoafNk3Pi5TP590vO2GY8vOJ90WNchRRdhEJlKtpc%2Fwrt%2BOGcxvAtTpq2HoP2DJH5CaGHg4PsPHxDCQvjXVXLwE1HqWcioXBcPGHBWk7sSKjreUWd9AcE7Bw2xBhWebEfVcl8cJFvORByw%3D%3D&X-Amz-Signature=a218626fc881ba2907060e1b0de99b972dd6703b329809d16da22b05b64f80fc'
p15
sS'content_type'
p16
S'application/zip'
p17
sS'type'
p18
S'Attachment'
p19
sS'id'
p20
I29044
sS'link_type'
p21
S'upload'
p22
ssS'sg_status_list'
p23
S'prod'
p24
sS'sg_detailed_release_notes'
p25
(dp26
S'name'
p27
S'v1.9.4'
p28
sS'url'
p29
S'https://community.shotgridsoftware.com/t/a-new-version-of-tk-photoshopcc-has-been-released/14154/6'
p30
sS'content_type'
p31
NsS'type'
p32
S'Attachment'
p33
sS'id'
p34
I29045
sS'link_type'
p35
S'web'
p36
ssS'sg_documentation'
p37
(dp38
S'name'
p39
S'Documentation'
p40
sS'url'
p41
S'https://developer.shotgridsoftware.com/115000026653'
p42
sS'content_type'
p43
NsS'type'
p44
S'Attachment'
p45
sS'id'
p46
I29043
sS'link_type'
p47
S'web'
p48
ssS'type'
p49
S'CustomNonProjectEntity04'
p50
sS'id'
p51
I3413
ssS'sg_bundle_data'
p52
(dp53
S'sg_status_list'
p54
S'depl'
p55
sS'type'
p56
S'CustomNonProjectEntity03'
p57
sS'id'
p58
I54
sS'sg_system_name'
p59
S'tk-photoshopcc'
p60
sS'sg_deprecation_message'
p61
Nss.