(dp1
S'sg_version_data'
p2
(dp3
S'code'
p4
S'v1.5.0'
p5
sS'description'
p6
S'[No wiki release notes found]'
p7
sS'tags'
p8
(lp9
sS'sg_payload'
p10
(dp11
S'name'
p12
S'tk-config-default2_v1.5.0.zip'
p13
sS'url'
p14
S'https://s3-proxy.shotgunstudio.com/d18c13bf0e59a9a82f18be518a1b6b508bcbd774/ab097fb6f2e19a85fbb1d669aebb9519d511cf68/tk-config-default2_v1.5.0.zip?response-content-disposition=filename%3D%22tk-config-default2_v1.5.0.zip%22&x-amz-meta-user-id=42&x-amz-meta-user-type=ApiUser&X-Amz-Algorithm=AWS4-HMAC-SHA256&X-Amz-Credential=ASIAYJG6Z4JIU26WQXKN%2F20230525%2Fus-west-2%2Fs3%2Faws4_request&X-Amz-Date=20230525T093319Z&X-Amz-SignedHeaders=host&X-Amz-Expires=900&X-Amz-Security-Token=IQoJb3JpZ2luX2VjENr%2F%2F%2F%2F%2F%2F%2F%2F%2F%2FwEaCXVzLWVhc3QtMSJIMEYCIQDiT0%2BitGVXzQwtEx1ACjnjmajQxvCx0Q1oZgFAWvM8HAIhAKZIH3wNkYo17KMLQmGEU4k3SNoIrFPQeb%2FCJdxQDz%2BmKpgCCBIQABoMNTY5NTUwNDMwODAxIgwBKnEaoq6HVlwy3u8q9QG%2FlknP1PM%2FOSvBeab44H0XZEf7FufK0fs4VHzdZ6Z8wyu0%2FJYcmcAH1lnQMheOCvsxyujfhV8hb2vVvlAezOU0dPFuHW7oQezARbWmRcIqq%2BD1P354c0E5OruLoCxxCmAegHYz%2F90vfgg5zVv9Ih3aJhszxP%2BlW%2Bo1OiI99D5qwL%2BQPg5iMac52zzCZWlBj8SdtEha%2BcVVnv7IMVIL8TtI%2FKAa6SDL2QxfWKystDSpAf8ouQb0Vp2ZkW3R9o1Z6tHG3RuPjommR2maRKkL3yiHTXUpsFUb7EQBF2YN4brEJ0AMR6pcoifm2rX%2FapK8W7ZMIVOsIDCvzbyjBjqcAdGMxRuQgEok1OWXm6VakC3fxQwr%2Fh0WLCX0%2BeW0d9%2B9W%2BzYxcdRsazelrIXewgb1RjnMSqLk4xZLamWcS3w2YrFPdnn4C4SuUCIem%2F%2FFLgxT0sHjjm8d4FnLCK8RpqUZoilanqyWyu3H%2F9pnKNcK6F%2BN2Yy4TEJ%2FqLIpDHEpsSGDKDD4GorOvP%2B57yGHNkYDTRfE5lhcCu2ujtXpA%3D%3D&X-Amz-Signature=bc1e6e031147e7372c7e302b5615efcb7e37191e2c49f12d428ece4d0e48dd5d'
p15
sS'content_type'
p16
S'application/zip'
p17
sS'type'
p18
S'Attachment'
p19
sS'id'
p20
I29577
sS'link_type'
p21
S'upload'
p22
ssS'sg_status_list'
p23
S'prod'
p24
sS'sg_detailed_release_notes'
p25
(dp26
S'name'
p27
S'v1.5.0'
p28
sS'url'
p29
S'https://community.shotgridsoftware.com/t/shotgrid-integration-1-5-release-notes/16635'
p30
sS'content_type'
p31
NsS'type'
p32
S'Attachment'
p33
sS'id'
p34
I29578
sS'link_type'
p35
S'web'
p36
ssS'sg_documentation'
p37
NsS'type'
p38
S'CustomNonProjectEntity08'
p39
sS'id'
p40
I2688
ssS'sg_bundle_data'
p41
(dp42
S'sg_status_list'
p43
S'hidden'
p44
sS'type'
p45
S'CustomNonProjectEntity07'
p46
sS'id'
p47
I81
sS'sg_system_name'
p48
S'tk-config-default2'
p49
sS'sg_deprecation_message'
p50
Nss.