(dp1
S'sg_version_data'
p2
(dp3
S'code'
p4
S'v0.12.2'
p5
sS'description'
p6
S'ShotGrid branding updates.'
p7
sS'tags'
p8
(lp9
sS'sg_payload'
p10
(dp11
S'name'
p12
S'tk-multi-launchapp_v0.12.2.zip'
p13
sS'url'
p14
S'https://s3-proxy.shotgunstudio.com/d18c13bf0e59a9a82f18be518a1b6b508bcbd774/20d40963a31f3a203c0064092b74fe76ae6cc86e/tk-multi-launchapp_v0.12.2.zip?response-content-disposition=filename%3D%22tk-multi-launchapp_v0.12.2.zip%22&x-amz-meta-user-id=42&x-amz-meta-user-type=ApiUser&X-Amz-Algorithm=AWS4-HMAC-SHA256&X-Amz-Credential=ASIAYJG6Z4JI6YXIK5HT%2F20230516%2Fus-west-2%2Fs3%2Faws4_request&X-Amz-Date=20230516T100442Z&X-Amz-SignedHeaders=host&X-Amz-Expires=900&X-Amz-Security-Token=IQoJb3JpZ2luX2VjEAIaCXVzLWVhc3QtMSJIMEYCIQD762Xulc5ZcJnzpi9Y3Yl2SxTStCKHU5e5qbqJupchbQIhAKi8aA1Rgt2MMHjHwFzT9NypNv5agN%2BmpvAL430tNbofKpgCCCsQABoMNTY5NTUwNDMwODAxIgzTfgsV5YFeW4p5HXwq9QGLS1EroajK%2BpCe9Ig9qLItX4BZilo3yWxQINIUUxpxNJ2kA05WECXeFcXhjN01bU13pJMwXYShgjORO3l5zKKfxfMZ%2F7JY1mf4DXDMIuEpAd3%2BLxyUoHBYfpapMNMHORHicvky33EF4A7ZWqhUgId9gaI9JKmOAiX1aTlh7iyWnOYtnk0BRWCb%2FJE6qFxnUdSob805lzOsduYE2tS3L8LWBdAianzUe1x1PGV%2FaegcVH3lgvMwdkUhpgLp%2FzNtDGg4LHeDqWp1CklZq2RJ4JaOfOO6onkxw3TlXSZD8BXn1Oa1iUihg7VgTUX%2FvEnnwiyVKKxD%2BzDspI2jBjqcAXIVZafbTMKgZcwayTUp7No%2FlmSa%2BiPW1w2M%2FEGLntIzZd%2F1KlFoOJO%2FSvc%2F0veuSTBk6EBa60gweW0Ensbw4Gk4jyPJYdzAiQxxn8JIqwUJ9uoQuafLHUPBIcE60c7raJpMHk0GFs%2FXakeT5tk8eDeg5SAezY4vI5RptnAFp%2BIcH60ZGx%2F2ME9bPO39VGsEEu7qTXjyCJPkALI7UQ%3D%3D&X-Amz-Signature=2dc9f7a01c17f73c80c6cc4f05666483d2ef989abc48db1251108a22f79d8523'
p15
sS'content_type'
p16
S'application/zip'
p17
sS'type'
p18
S'Attachment'
p19
sS'id'
p20
I27736
sS'link_type'
p21
S'upload'
p22
ssS'sg_status_list'
p23
S'prod'
p24
sS'sg_detailed_release_notes'
p25
(dp26
S'name'
p27
S'v0.12.2'
p28
sS'url'
p29
S'https://community.shotgridsoftware.com/t/a-new-version-of-tk-multi-launchapp-has-been-released/14137/4'
p30
sS'content_type'
p31
NsS'type'
p32
S'Attachment'
p33
sS'id'
p34
I27861
sS'link_type'
p35
S'web'
p36
ssS'sg_documentation'
p37
(dp38
S'name'
p39
S'Documentation'
p40
sS'url'
p41
S'https://developer.shotgridsoftware.com/219032968'
p42
sS'content_type'
p43
NsS'type'
p44
S'Attachment'
p45
sS'id'
p46
I27735
sS'link_type'
p47
S'web'
p48
ssS'type'
p49
S'CustomNonProjectEntity05'
p50
sS'id'
p51
I4610
ssS'sg_bundle_data'
p52
(dp53
S'sg_status_list'
p54
S'depl'
p55
sS'type'
p56
S'CustomNonProjectEntity02'
p57
sS'id'
p58
I49
sS'sg_system_name'
p59
S'tk-multi-launchapp'
p60
sS'sg_deprecation_message'
p61
Nss.