(dp1
S'sg_version_data'
p2
(dp3
S'code'
p4
S'v0.9.2'
p5
sS'description'
p6
S'ShotGrid branding updates.'
p7
sS'tags'
p8
(lp9
sS'sg_payload'
p10
(dp11
S'name'
p12
S'tk-shell_v0.9.2.zip'
p13
sS'url'
p14
S'https://s3-proxy.shotgunstudio.com/d18c13bf0e59a9a82f18be518a1b6b508bcbd774/ae27441819fd36924d48011bc3931dcea7ca93e5/tk-shell_v0.9.2.zip?response-content-disposition=filename%3D%22tk-shell_v0.9.2.zip%22&x-amz-meta-user-id=42&x-amz-meta-user-type=ApiUser&X-Amz-Algorithm=AWS4-HMAC-SHA256&X-Amz-Credential=ASIAYJG6Z4JIYVLGHAMU%2F20230516%2Fus-west-2%2Fs3%2Faws4_request&X-Amz-Date=20230516T100438Z&X-Amz-SignedHeaders=host&X-Amz-Expires=900&X-Amz-Security-Token=IQoJb3JpZ2luX2VjEAIaCXVzLWVhc3QtMSJIMEYCIQD1Xr40VW1b7XpGoXt3saBbzqNxgU19oddjjnzzKKucTgIhALYMDNLOIz1bxHQQmAlktkUtUDSUWXYWTbpiigstBChZKpgCCCsQABoMNTY5NTUwNDMwODAxIgworBtzzIjCjWjRC8Qq9QER3vkBO8wMPSFxy7ujWt%2BxxMNfpWNfYLDgGW0GFENz3cpGKwTdnwpV9bnuDI3AkH6ffBZzihDAEq8DrFx2f02avxGnlXT4d14hyXo1X0jwQlIeNSAds8yoWC%2Br%2FWCrTzak2%2BWJmt3zrhG8IDcG82rM3cjd669wVrIXUc14g7hyw4UFVEbrb3W%2Fb8P78lC3ZI8SZmEKKE0eIK2hjRn2t1WyXFK8%2FEh1Krf4FNx5l7iRbOUYk02zuNlHr%2FShL0gj6vXQICX5ddWUARbQ33PycaMuDtjjokS%2BfwZ8nrrmUFNzB0TiN3suD0e8Hgj%2BuQ6AMramsObzeTCSl42jBjqcAepaTdI88Alcqswc%2FO2oTXN9q%2FB1T4HdpjL7MSsAQ8JaQ4qFGg7IRqP%2Fp%2Frv0Fz3r08y0H1W9X3wjuX2RZ2aF1UHf4mr5TyICX55tKnaaX1JanjzmxnJxild8MYinA5GXLLTgQoYZXg%2FaX2pbu3gptDDL1yZXVfmnxjczn1GHb2dqHpUZWYqbNdG9ndDOPd3EngkUsA4ShCz%2BQjulg%3D%3D&X-Amz-Signature=94d9161bc187593cffea596a74d1af51bb9435d067c977f703041fa9ad87cc08'
p15
sS'content_type'
p16
S'application/zip'
p17
sS'type'
p18
S'Attachment'
p19
sS'id'
p20
I27771
sS'link_type'
p21
S'upload'
p22
ssS'sg_status_list'
p23
S'prod'
p24
sS'sg_detailed_release_notes'
p25
(dp26
S'name'
p27
S'v0.9.2'
p28
sS'url'
p29
S'https://community.shotgridsoftware.com/t/a-new-version-of-tk-shell-has-been-released/14155/4'
p30
sS'content_type'
p31
NsS'type'
p32
S'Attachment'
p33
sS'id'
p34
I27875
sS'link_type'
p35
S'web'
p36
ssS'sg_documentation'
p37
(dp38
S'name'
p39
S'Documentation'
p40
sS'url'
p41
S'https://developer.shotgridsoftware.com/219039898'
p42
sS'content_type'
p43
NsS'type'
p44
S'Attachment'
p45
sS'id'
p46
I27770
sS'link_type'
p47
S'web'
p48
ssS'type'
p49
S'CustomNonProjectEntity04'
p50
sS'id'
p51
I3056
ssS'sg_bundle_data'
p52
(dp53
S'sg_status_list'
p54
S'depl'
p55
sS'type'
p56
S'CustomNonProjectEntity03'
p57
sS'id'
p58
I8
sS'sg_system_name'
p59
S'tk-shell'
p60
sS'sg_deprecation_message'
p61
Nss.