(dp1
S'sg_version_data'
p2
(dp3
S'code'
p4
S'v1.3.5'
p5
sS'description'
p6
S'Updated minimum required version of tk-framework-qtwidgets.'
p7
sS'tags'
p8
(lp9
sS'sg_payload'
p10
(dp11
S'name'
p12
S'tk-multi-demo_v1.3.5.zip'
p13
sS'url'
p14
S'https://s3-proxy.shotgunstudio.com/d18c13bf0e59a9a82f18be518a1b6b508bcbd774/61dca4215c0b8face2e07cc52be578dfdb85989a/tk-multi-demo_v1.3.5.zip?response-content-disposition=filename%3D%22tk-multi-demo_v1.3.5.zip%22&x-amz-meta-user-id=42&x-amz-meta-user-type=ApiUser&X-Amz-Algorithm=AWS4-HMAC-SHA256&X-Amz-Credential=ASIAYJG6Z4JI3BJTIAHQ%2F20230516%2Fus-west-2%2Fs3%2Faws4_request&X-Amz-Date=20230516T100645Z&X-Amz-SignedHeaders=host&X-Amz-Expires=900&X-Amz-Security-Token=IQoJb3JpZ2luX2VjEAIaCXVzLWVhc3QtMSJHMEUCIC8q%2FDfax5xFdYj2y37FIJunQXQ9sg8x5hL3et3VSecSAiEAlV6DUUmOmsvjpQtzbFw9UOCkTjKYf9WAiw98bt4stYoqmAIIKxAAGgw1Njk1NTA0MzA4MDEiDNk1EFhcDMd48TExaSr1AUkw3fR%2FPomkz225ID12fvMn0AE48A7F5eoW2pXNOXibYUfduwvLIeLUcIN4hWPh8fQ%2FDP%2FDYxHZXNszb9x04mIr7snnSszXuoHPNBbTmWFOvRfpZuBQxlgZWdKUhtbyZOrBNxBsb3RG6B7i74FCqPfmIM9vBgzCqIdDYIO6M7a%2FMH1kKo3jVItbje6x531ZkS8Z7EJoH%2FLYqCBAoavxAEWKd9vezh5ROp%2FTGbjqwu%2F7nKebWMcAtOVUw2%2Fekdo%2BurYMQrh3nTQaTyljf1POluzZQI6LNYKBGUZbzeMf7vCoOvC74gbu2dh2hWIOhN1OvOsI%2BQiEMNSijaMGOp0BgVehU3LnIicYgdVJVJXwMU3CaOmg6X6vMLGm9p3OwPX1GqI4%2FKV1KUIwLrEgVmMJxSRqEdowivbrxjNuemwfbpFgL7RfS2aAX3ezlZvIbBs2H8gcMYcmhQa4D1eyZi19ievJrgfRBly7HdsRtF7Pa4%2FejQwMbVDntQe389gO%2FzqBg1u4bvKvLvmrOJfwM2odYrat4lrCDMe3VpFA8Q%3D%3D&X-Amz-Signature=b11e05198789442602f87b8796ed1a44e6b73d2c36b8c0cd84132a0f00ec978b'
p15
sS'content_type'
p16
S'application/zip'
p17
sS'type'
p18
S'Attachment'
p19
sS'id'
p20
I29113
sS'link_type'
p21
S'upload'
p22
ssS'sg_status_list'
p23
S'prod'
p24
sS'sg_detailed_release_notes'
p25
(dp26
S'name'
p27
S'v1.3.5'
p28
sS'url'
p29
S'https://community.shotgridsoftware.com/t/a-new-version-of-tk-multi-demo-has-been-released/13649/6'
p30
sS'content_type'
p31
NsS'type'
p32
S'Attachment'
p33
sS'id'
p34
I29141
sS'link_type'
p35
S'web'
p36
ssS'sg_documentation'
p37
(dp38
S'name'
p39
S'Documentation'
p40
sS'url'
p41
S'https://developer.shotgridsoftware.com/115000053274'
p42
sS'content_type'
p43
NsS'type'
p44
S'Attachment'
p45
sS'id'
p46
I29112
sS'link_type'
p47
S'web'
p48
ssS'type'
p49
S'CustomNonProjectEntity05'
p50
sS'id'
p51
I5104
ssS'sg_bundle_data'
p52
(dp53
S'sg_status_list'
p54
S'depl'
p55
sS'type'
p56
S'CustomNonProjectEntity02'
p57
sS'id'
p58
I232
sS'sg_system_name'
p59
S'tk-multi-demo'
p60
sS'sg_deprecation_message'
p61
Nss.