(dp1
S'sg_version_data'
p2
(dp3
S'code'
p4
S'v1.8.1'
p5
sS'description'
p6
S'Replacing shotgunsoftware urls with Autodesk Knowledge Network and ShotGrid Developer Documentation pages.'
p7
sS'tags'
p8
(lp9
sS'sg_payload'
p10
(dp11
S'name'
p12
S'tk-multi-breakdown_v1.8.1.zip'
p13
sS'url'
p14
S'https://s3-proxy.shotgunstudio.com/d18c13bf0e59a9a82f18be518a1b6b508bcbd774/4866864e7cd273abcd2d3d7973d42b3ccbd8d249/tk-multi-breakdown_v1.8.1.zip?response-content-disposition=filename%3D%22tk-multi-breakdown_v1.8.1.zip%22&x-amz-meta-user-id=42&x-amz-meta-user-type=ApiUser&X-Amz-Algorithm=AWS4-HMAC-SHA256&X-Amz-Credential=ASIAYJG6Z4JIWINIJQVC%2F20230516%2Fus-west-2%2Fs3%2Faws4_request&X-Amz-Date=20230516T100552Z&X-Amz-SignedHeaders=host&X-Amz-Expires=900&X-Amz-Security-Token=IQoJb3JpZ2luX2VjEAIaCXVzLWVhc3QtMSJIMEYCIQD%2ByqNKrZx6P2l2DEnjVN3KjEPv%2BT6kM4%2BjSrj6sbLS1wIhAObXSd5ydmwPxK%2F1rnqqjFjCkLKEtyuJ9HwPNC%2BnilmWKpgCCCsQABoMNTY5NTUwNDMwODAxIgwRfPDP4Nhf1cq4J%2FMq9QFiGRewmXvQ%2FsB7v1BKhqOjhYCXnbZ2R5E4NvvRBGIqCg6nMpAfGM3hhjBxvfrtocCS9e7tgR7lGzgqNQU2Ey5zAEZ%2FWKcWP01auHaKcSaz3HB3Vsxz0EK2S%2BxjIN5axHIiM7mlO1D%2FLQ5iEJLsrlkNAjF7%2BKX%2FHK2tXqtUhUrMpIZiUrKauWQdQ8uKKUIaDcK2G%2BdDOkYAo02Rz7S7HskWbjmcc7iHhN%2FkFQ2kHxMEoXz2X1AV%2BW%2FR%2B2BXyMZuul02j0JP5VuG8G8AHC7HNf%2B5PuFkH9I7iMtactulXgyNu5G2UG8LH7FQTpLjEfNxiaIbPvOCvTDtoI2jBjqcAXdHlciNn7yVs%2F7MNTUWk%2FicRfPs5YBARmNZtxq%2Ftsfxw9YorAwFUbo2OBpRHfFsWQk3VzShJjcXkox6dleX7jAzaNaP4wX6UVQwfDsCI2hfEgnCkwfjr1SEEFqzCg9TPjyM3Xx8UGBXEvaQx1bPpJoFqTldHaWdovbvj6qZDZXDlxXHXpQmjfTSnNqjpRrCxI7mF0lnEzwZjD6vZQ%3D%3D&X-Amz-Signature=1667f43a2241e5fd8642798c5636b18838a3ba87132466fc66b6d5a24b6af865'
p15
sS'content_type'
p16
S'application/zip'
p17
sS'type'
p18
S'Attachment'
p19
sS'id'
p20
I26927
sS'link_type'
p21
S'upload'
p22
ssS'sg_status_list'
p23
S'prod'
p24
sS'sg_detailed_release_notes'
p25
(dp26
S'name'
p27
S'v1.8.1'
p28
sS'url'
p29
S'https://community.shotgridsoftware.com/t/a-new-version-of-tk-multi-breakdown-has-been-released/14135/3'
p30
sS'content_type'
p31
NsS'type'
p32
S'Attachment'
p33
sS'id'
p34
I27032
sS'link_type'
p35
S'web'
p36
ssS'sg_documentation'
p37
(dp38
S'name'
p39
S'Documentation'
p40
sS'url'
p41
S'https://developer.shotgridsoftware.com/219032988'
p42
sS'content_type'
p43
NsS'type'
p44
S'Attachment'
p45
sS'id'
p46
I26926
sS'link_type'
p47
S'web'
p48
ssS'type'
p49
S'CustomNonProjectEntity05'
p50
sS'id'
p51
I4415
ssS'sg_bundle_data'
p52
(dp53
S'sg_status_list'
p54
S'depl'
p55
sS'type'
p56
S'CustomNonProjectEntity02'
p57
sS'id'
p58
I52
sS'sg_system_name'
p59
S'tk-multi-breakdown'
p60
sS'sg_deprecation_message'
p61
Nss.