(dp1
S'sg_version_data'
p2
(dp3
S'code'
p4
S'v0.2.8'
p5
sS'description'
p6
S'Adds Python 3 support.'
p7
sS'tags'
p8
(lp9
sS'sg_payload'
p10
(dp11
S'name'
p12
S'tk-framework-widget_v0.2.8.zip'
p13
sS'url'
p14
S'https://s3-proxy.shotgunstudio.com/d18c13bf0e59a9a82f18be518a1b6b508bcbd774/5bf12ffba81768a80e4c3fb738de8f60794b139b/tk-framework-widget_v0.2.8.zip?response-content-disposition=filename%3D%22tk-framework-widget_v0.2.8.zip%22&x-amz-meta-user-id=42&x-amz-meta-user-type=ApiUser&X-Amz-Algorithm=AWS4-HMAC-SHA256&X-Amz-Credential=ASIAYJG6Z4JIWC4LCAG6%2F20230516%2Fus-west-2%2Fs3%2Faws4_request&X-Amz-Date=20230516T100335Z&X-Amz-SignedHeaders=host&X-Amz-Expires=900&X-Amz-Security-Token=IQoJb3JpZ2luX2VjEAIaCXVzLWVhc3QtMSJHMEUCIG%2FC%2B3JD5Re62CbUMBHChDLr9llbU963D17lKDJ5GS13AiEA5QCd7qHhf0G8LlQabW6fz4RVI%2Fd5XD9bJZTd1XIHA2IqmAIIKxAAGgw1Njk1NTA0MzA4MDEiDAv9%2BZpKFFZXJFJtkir1AdIgFrcbW9MUnFFz54SfyTgI93h%2Fb2sePGjGqK3%2BgcxF0EdKcMjDpiUO8WKd0VDXVC2hp7iIVRoo0O%2BqqNXXG8KXrAajcG65a7NXYtVaKdS64QibnL9cDLbayxpTlXjyLbEpp0JVfpfN6bE5EH5bzlRGXO290MIfsxnBly4lJeu92s7uRYEN9OcaeeF3D1Ouwy7PMqmKGpO9qKgzJ2JFKJOPAsPlCKU3AKG4g6WiDy%2BxAihnTgTTvC4%2FFzjAaG8WV5%2BK2pPLEOA%2BJlv%2Fyn0gV8TIhD8fo4%2F6l9PZjj%2FD62a6HuVPPQFaaxKOCKuTMMTVXii%2Bht3vMKGYjaMGOp0BF4EEK3oGtCughGEpB6LYtUx3xNTCuKh3Ym2fgW3YimWdCUby3TTDYjuvaHYeYM789c3Vj5Zzmw6otb0jyU4WqCq5UE%2FU39os4a4vc%2Boqm1onOCBUtpmKdpxPds57CNMkikU1v2R339ZZcX3vWzdmBsVj8gZ8z7gdNBRSdld7446bDrfism7nAJRBLuEhm%2B5jizqqqKHYkCKV1Jhnuw%3D%3D&X-Amz-Signature=c34099649c5d57476acfd48a20c5356d9902eb183ac6dff41be127f7b8493fc3'
p15
sS'content_type'
p16
S'application/zip'
p17
sS'type'
p18
S'Attachment'
p19
sS'id'
p20
I21722
sS'link_type'
p21
S'upload'
p22
ssS'sg_status_list'
p23
S'prod'
p24
sS'sg_detailed_release_notes'
p25
NsS'sg_documentation'
p26
NsS'type'
p27
S'CustomNonProjectEntity09'
p28
sS'id'
p29
I938
ssS'sg_bundle_data'
p30
(dp31
S'sg_status_list'
p32
S'hidden'
p33
sS'type'
p34
S'CustomNonProjectEntity13'
p35
sS'id'
p36
I1
sS'sg_system_name'
p37
S'tk-framework-widget'
p38
sS'sg_deprecation_message'
p39
Nss.